target datalayout = "e-m:e-p270:32:32-p271:32:32-p272:64:64-i64:64-i128:128-f80:128-n8:16:32:64-S128"
target triple = "x86_64-pc-linux-gnu"

%struct.nghttp2_stream = type { i32, %struct.nghttp2_pq_entry, i64, i64, i64, i64, ptr, ptr, ptr, i64, i32, i32, i32, i32, i32, i32, i32, i16, i32, i8, i8, i8, i8, i8, i8 }
%struct.nghttp2_pq_entry = type { i64 }

; Function Attrs: nounwind uwtable
define internal i32 @expect_response_body(ptr noundef %0) #0 {
  %2 = alloca ptr, align 8
  store ptr %0, ptr %2, align 8, !tbaa !8
  %3 = load ptr, ptr %2, align 8, !tbaa !8
  %4 = getelementptr inbounds nuw %struct.nghttp2_stream, ptr %3, i32 0, i32 18
  %5 = load i32, ptr %4, align 8, !tbaa !25
  %6 = and i32 %5, 256
  %7 = icmp eq i32 %6, 0
  br i1 %7, label %8, label %27

8:                                                ; preds = %1
  %9 = load ptr, ptr %2, align 8, !tbaa !8
  %10 = getelementptr inbounds nuw %struct.nghttp2_stream, ptr %9, i32 0, i32 17
  %11 = load i16, ptr %10, align 4, !tbaa !64
  %12 = sext i16 %11 to i32
  %13 = sdiv i32 %12, 100
  %14 = icmp ne i32 %13, 1
  br i1 %14, label %15, label %27

15:                                               ; preds = %8
  %16 = load ptr, ptr %2, align 8, !tbaa !8
  %17 = getelementptr inbounds nuw %struct.nghttp2_stream, ptr %16, i32 0, i32 17
  %18 = load i16, ptr %17, align 4, !tbaa !64
  %19 = sext i16 %18 to i32
  %20 = icmp ne i32 %19, 304
  br i1 %20, label %21, label %27

21:                                               ; preds = %15
  %22 = load ptr, ptr %2, align 8, !tbaa !8
  %23 = getelementptr inbounds nuw %struct.nghttp2_stream, ptr %22, i32 0, i32 17
  %24 = load i16, ptr %23, align 4, !tbaa !64
  %25 = sext i16 %24 to i32
  %26 = icmp ne i32 %25, 204
  br label %27

27:                                               ; preds = %21, %15, %8, %1
  %28 = phi i1 [ false, %15 ], [ false, %8 ], [ false, %1 ], [ %26, %21 ]
  %29 = zext i1 %28 to i32
  ret i32 %29
}

; Function Attrs: nounwind uwtable
define hidden i32 @nghttp2_http_on_response_headers(ptr noundef %0) #0 {
  %2 = alloca i32, align 4
  %3 = alloca ptr, align 8
  store ptr %0, ptr %3, align 8, !tbaa !8
  %4 = load ptr, ptr %3, align 8, !tbaa !8
  %5 = getelementptr inbounds nuw %struct.nghttp2_stream, ptr %4, i32 0, i32 18
  %6 = load i32, ptr %5, align 8, !tbaa !25
  %7 = and i32 %6, 32
  %8 = icmp eq i32 %7, 0
  br i1 %8, label %9, label %10

9:                                                ; preds = %1
  store i32 -1, ptr %2, align 4
  br label %53

10:                                               ; preds = %1
  %11 = load ptr, ptr %3, align 8, !tbaa !8
  %12 = getelementptr inbounds nuw %struct.nghttp2_stream, ptr %11, i32 0, i32 17
  %13 = load i16, ptr %12, align 4, !tbaa !64
  %14 = sext i16 %13 to i32
  %15 = sdiv i32 %14, 100
  %16 = icmp eq i32 %15, 1
  br i1 %16, label %17, label %29

17:                                               ; preds = %10
  %18 = load ptr, ptr %3, align 8, !tbaa !8
  %19 = getelementptr inbounds nuw %struct.nghttp2_stream, ptr %18, i32 0, i32 18
  %20 = load i32, ptr %19, align 8, !tbaa !25
  %21 = and i32 %20, 1920
  %22 = or i32 %21, 16384
  %23 = load ptr, ptr %3, align 8, !tbaa !8
  %24 = getelementptr inbounds nuw %struct.nghttp2_stream, ptr %23, i32 0, i32 18
  store i32 %22, ptr %24, align 8, !tbaa !25
  %25 = load ptr, ptr %3, align 8, !tbaa !8
  %26 = getelementptr inbounds nuw %struct.nghttp2_stream, ptr %25, i32 0, i32 2
  store i64 -1, ptr %26, align 8, !tbaa !62
  %27 = load ptr, ptr %3, align 8, !tbaa !8
  %28 = getelementptr inbounds nuw %struct.nghttp2_stream, ptr %27, i32 0, i32 17
  store i16 -1, ptr %28, align 4, !tbaa !64
  store i32 0, ptr %2, align 4
  br label %53

29:                                               ; preds = %10
  %30 = load ptr, ptr %3, align 8, !tbaa !8
  %31 = getelementptr inbounds nuw %struct.nghttp2_stream, ptr %30, i32 0, i32 18
  %32 = load i32, ptr %31, align 8, !tbaa !25
  %33 = and i32 %32, -16385
  %34 = load ptr, ptr %3, align 8, !tbaa !8
  %35 = getelementptr inbounds nuw %struct.nghttp2_stream, ptr %34, i32 0, i32 18
  store i32 %33, ptr %35, align 8, !tbaa !25
  %36 = load ptr, ptr %3, align 8, !tbaa !8
  %37 = call i32 @expect_response_body(ptr noundef %36)
  %38 = icmp ne i32 %37, 0
  br i1 %38, label %42, label %39

39:                                               ; preds = %29
  %40 = load ptr, ptr %3, align 8, !tbaa !8
  %41 = getelementptr inbounds nuw %struct.nghttp2_stream, ptr %40, i32 0, i32 2
  store i64 0, ptr %41, align 8, !tbaa !62
  br label %52

42:                                               ; preds = %29
  %43 = load ptr, ptr %3, align 8, !tbaa !8
  %44 = getelementptr inbounds nuw %struct.nghttp2_stream, ptr %43, i32 0, i32 18
  %45 = load i32, ptr %44, align 8, !tbaa !25
  %46 = and i32 %45, 1152
  %47 = icmp ne i32 %46, 0
  br i1 %47, label %48, label %51

48:                                               ; preds = %42
  %49 = load ptr, ptr %3, align 8, !tbaa !8
  %50 = getelementptr inbounds nuw %struct.nghttp2_stream, ptr %49, i32 0, i32 2
  store i64 -1, ptr %50, align 8, !tbaa !62
  br label %51

51:                                               ; preds = %48, %42
  br label %52

52:                                               ; preds = %51, %39
  store i32 0, ptr %2, align 4
  br label %53

53:                                               ; preds = %52, %17, %9
  %54 = load i32, ptr %2, align 4
  ret i32 %54
}